target datalayout = "e-m:e-p270:32:32-p271:32:32-p272:64:64-i64:64-i128:128-f80:128-n8:16:32:64-S128"
target triple = "x86_64-pc-linux-gnu"

%struct.VLCElem = type { %union.anon.1 }
%union.anon.1 = type { %struct.anon }
%struct.anon = type { i16, i16 }
%struct.VLCInitState = type { ptr, i32 }
%struct.HQXAC = type { i32, ptr }
%struct.anon.2 = type { i16, i8, i8 }

@__const.hqx_init_static.state = private unnamed_addr constant { ptr, i32, [4 x i8] } { ptr @cbp_vlc, i32 17870, [4 x i8] zeroinitializer }, align 8
@dc_vlc = internal global [2 x ptr] zeroinitializer, align 16
@hqx_ac_nb_elems = internal constant [6 x i16] [i16 815, i16 907, i16 512, i16 354, i16 257, i16 194], align 2

; Function Attrs: inlinehint nounwind uwtable
define internal ptr @ff_vlc_init_tables(ptr noundef %0, i32 noundef %1, i32 noundef %2, ptr noundef %3, i32 noundef %4, i32 noundef %5, ptr noundef %6, i32 noundef %7, i32 noundef %8, i32 noundef %9) #5 {
  %11 = alloca ptr, align 8
  %12 = alloca i32, align 4
  %13 = alloca i32, align 4
  %14 = alloca ptr, align 8
  %15 = alloca i32, align 4
  %16 = alloca i32, align 4
  %17 = alloca ptr, align 8
  %18 = alloca i32, align 4
  %19 = alloca i32, align 4
  %20 = alloca i32, align 4
  store ptr %0, ptr %11, align 8, !tbaa !79
  store i32 %1, ptr %12, align 4, !tbaa !31
  store i32 %2, ptr %13, align 4, !tbaa !31
  store ptr %3, ptr %14, align 8, !tbaa !81
  store i32 %4, ptr %15, align 4, !tbaa !31
  store i32 %5, ptr %16, align 4, !tbaa !31
  store ptr %6, ptr %17, align 8, !tbaa !81
  store i32 %7, ptr %18, align 4, !tbaa !31
  store i32 %8, ptr %19, align 4, !tbaa !31
  store i32 %9, ptr %20, align 4, !tbaa !31
  %21 = load ptr, ptr %11, align 8, !tbaa !79
  %22 = load i32, ptr %12, align 4, !tbaa !31
  %23 = load i32, ptr %13, align 4, !tbaa !31
  %24 = load ptr, ptr %14, align 8, !tbaa !81
  %25 = load i32, ptr %15, align 4, !tbaa !31
  %26 = load i32, ptr %16, align 4, !tbaa !31
  %27 = load ptr, ptr %17, align 8, !tbaa !81
  %28 = load i32, ptr %18, align 4, !tbaa !31
  %29 = load i32, ptr %19, align 4, !tbaa !31
  %30 = load i32, ptr %20, align 4, !tbaa !31
  %31 = call ptr @ff_vlc_init_tables_sparse(ptr noundef %21, i32 noundef %22, i32 noundef %23, ptr noundef %24, i32 noundef %25, i32 noundef %26, ptr noundef %27, i32 noundef %28, i32 noundef %29, ptr noundef null, i32 noundef 0, i32 noundef 0, i32 noundef %30)
  ret ptr %31
}

; Function Attrs: cold nounwind optsize uwtable
define internal void @hqx_init_static() #0 {
  %1 = alloca %struct.VLCInitState, align 8
  %2 = alloca ptr, align 8
  %3 = alloca ptr, align 8
  %4 = alloca i32, align 4
  %5 = alloca i32, align 4
  %6 = alloca ptr, align 8
  %7 = alloca i32, align 4
  %8 = alloca i32, align 4
  %9 = alloca i32, align 4
  %10 = alloca i32, align 4
  %11 = alloca i32, align 4
  call void @llvm.lifetime.start.p0(i64 16, ptr %1) #10
  call void @llvm.memcpy.p0.p0.i64(ptr align 8 %1, ptr align 8 @__const.hqx_init_static.state, i64 16, i1 false)
  call void @llvm.lifetime.start.p0(i64 8, ptr %2) #10
  store ptr @hqx_ac_lens, ptr %2, align 8, !tbaa !39
  call void @llvm.lifetime.start.p0(i64 8, ptr %3) #10
  store ptr @hqx_ac_run_level, ptr %3, align 8, !tbaa !68
  br label %12

12:                                               ; preds = %0
  %13 = call ptr @ff_vlc_init_tables(ptr noundef %1, i32 noundef 9, i32 noundef 512, ptr noundef @dc9_vlc_lens, i32 noundef 1, i32 noundef 1, ptr noundef @dc9_vlc_bits, i32 noundef 2, i32 noundef 2, i32 noundef 0)
  store ptr %13, ptr @dc_vlc, align 16, !tbaa !56
  br label %14

14:                                               ; preds = %12
  br label %15

15:                                               ; preds = %14
  br label %16

16:                                               ; preds = %15
  %17 = call ptr @ff_vlc_init_tables(ptr noundef %1, i32 noundef 9, i32 noundef 1024, ptr noundef @dc10_vlc_lens, i32 noundef 1, i32 noundef 1, ptr noundef @dc10_vlc_bits, i32 noundef 2, i32 noundef 2, i32 noundef 0)
  store ptr %17, ptr getelementptr inbounds ([2 x ptr], ptr @dc_vlc, i64 0, i64 1), align 8, !tbaa !56
  br label %18

18:                                               ; preds = %16
  br label %19

19:                                               ; preds = %18
  call void @llvm.lifetime.start.p0(i64 4, ptr %4) #10
  store i32 0, ptr %4, align 4, !tbaa !31
  br label %20

20:                                               ; preds = %125, %19
  %21 = load i32, ptr %4, align 4, !tbaa !31
  %22 = icmp slt i32 %21, 6
  br i1 %22, label %24, label %23

23:                                               ; preds = %20
  store i32 6, ptr %5, align 4
  call void @llvm.lifetime.end.p0(i64 4, ptr %4) #10
  br label %128

24:                                               ; preds = %20
  call void @llvm.lifetime.start.p0(i64 8, ptr %6) #10
  %25 = getelementptr inbounds nuw %struct.VLCInitState, ptr %1, i32 0, i32 0
  %26 = load ptr, ptr %25, align 8, !tbaa !69
  store ptr %26, ptr %6, align 8, !tbaa !56
  call void @llvm.lifetime.start.p0(i64 4, ptr %7) #10
  %27 = getelementptr inbounds nuw %struct.VLCInitState, ptr %1, i32 0, i32 1
  %28 = load i32, ptr %27, align 8, !tbaa !71
  store i32 %28, ptr %7, align 4, !tbaa !31
  %29 = load i32, ptr %4, align 4, !tbaa !31
  %30 = sext i32 %29 to i64
  %31 = getelementptr inbounds [6 x %struct.HQXAC], ptr @hqx_ac, i64 0, i64 %30
  %32 = getelementptr inbounds nuw %struct.HQXAC, ptr %31, i32 0, i32 0
  %33 = load i32, ptr %32, align 16, !tbaa !72
  %34 = load i32, ptr %4, align 4, !tbaa !31
  %35 = sext i32 %34 to i64
  %36 = getelementptr inbounds [6 x i16], ptr @hqx_ac_nb_elems, i64 0, i64 %35
  %37 = load i16, ptr %36, align 2, !tbaa !74
  %38 = zext i16 %37 to i32
  %39 = load ptr, ptr %2, align 8, !tbaa !39
  %40 = load ptr, ptr %3, align 8, !tbaa !68
  %41 = call ptr @ff_vlc_init_tables_from_lengths(ptr noundef %1, i32 noundef %33, i32 noundef %38, ptr noundef %39, i32 noundef 1, ptr noundef %40, i32 noundef 2, i32 noundef 2, i32 noundef 0, i32 noundef 0)
  %42 = load i32, ptr %4, align 4, !tbaa !31
  %43 = sext i32 %42 to i64
  %44 = getelementptr inbounds [6 x %struct.HQXAC], ptr @hqx_ac, i64 0, i64 %43
  %45 = getelementptr inbounds nuw %struct.HQXAC, ptr %44, i32 0, i32 1
  store ptr %41, ptr %45, align 8, !tbaa !76
  %46 = getelementptr inbounds nuw %struct.VLCInitState, ptr %1, i32 0, i32 1
  %47 = load i32, ptr %46, align 8, !tbaa !71
  %48 = load i32, ptr %7, align 4, !tbaa !31
  %49 = sub i32 %48, %47
  store i32 %49, ptr %7, align 4, !tbaa !31
  call void @llvm.lifetime.start.p0(i64 4, ptr %8) #10
  store i32 0, ptr %8, align 4, !tbaa !31
  br label %50

50:                                               ; preds = %105, %24
  %51 = load i32, ptr %8, align 4, !tbaa !31
  %52 = load i32, ptr %7, align 4, !tbaa !31
  %53 = icmp ult i32 %51, %52
  br i1 %53, label %55, label %54

54:                                               ; preds = %50
  store i32 9, ptr %5, align 4
  call void @llvm.lifetime.end.p0(i64 4, ptr %8) #10
  br label %108

55:                                               ; preds = %50
  call void @llvm.lifetime.start.p0(i64 4, ptr %9) #10
  %56 = load ptr, ptr %6, align 8, !tbaa !56
  %57 = load i32, ptr %8, align 4, !tbaa !31
  %58 = zext i32 %57 to i64
  %59 = getelementptr inbounds nuw %struct.VLCElem, ptr %56, i64 %58
  %60 = getelementptr inbounds nuw %struct.VLCElem, ptr %59, i32 0, i32 0
  %61 = getelementptr inbounds nuw %struct.anon, ptr %60, i32 0, i32 0
  %62 = load i16, ptr %61, align 2, !tbaa !41
  %63 = sext i16 %62 to i32
  store i32 %63, ptr %9, align 4, !tbaa !31
  call void @llvm.lifetime.start.p0(i64 4, ptr %10) #10
  %64 = load ptr, ptr %6, align 8, !tbaa !56
  %65 = load i32, ptr %8, align 4, !tbaa !31
  %66 = zext i32 %65 to i64
  %67 = getelementptr inbounds nuw %struct.VLCElem, ptr %64, i64 %66
  %68 = getelementptr inbounds nuw %struct.VLCElem, ptr %67, i32 0, i32 0
  %69 = getelementptr inbounds nuw %struct.anon, ptr %68, i32 0, i32 1
  %70 = load i16, ptr %69, align 2, !tbaa !41
  %71 = sext i16 %70 to i32
  store i32 %71, ptr %10, align 4, !tbaa !31
  call void @llvm.lifetime.start.p0(i64 4, ptr %11) #10
  %72 = load i32, ptr %10, align 4, !tbaa !31
  %73 = icmp slt i32 %72, 0
  br i1 %73, label %74, label %76

74:                                               ; preds = %55
  %75 = load i32, ptr %9, align 4, !tbaa !31
  store i32 %75, ptr %11, align 4, !tbaa !31
  br label %88

76:                                               ; preds = %55
  %77 = load i32, ptr %9, align 4, !tbaa !31
  %78 = ashr i32 %77, 7
  store i32 %78, ptr %11, align 4, !tbaa !31
  %79 = load i32, ptr %9, align 4, !tbaa !31
  %80 = and i32 %79, 127
  %81 = trunc i32 %80 to i8
  %82 = load ptr, ptr %6, align 8, !tbaa !56
  %83 = load i32, ptr %8, align 4, !tbaa !31
  %84 = zext i32 %83 to i64
  %85 = getelementptr inbounds nuw %struct.VLCElem, ptr %82, i64 %84
  %86 = getelementptr inbounds nuw %struct.VLCElem, ptr %85, i32 0, i32 0
  %87 = getelementptr inbounds nuw %struct.anon.2, ptr %86, i32 0, i32 2
  store i8 %81, ptr %87, align 1, !tbaa !41
  br label %88

88:                                               ; preds = %76, %74
  %89 = load i32, ptr %10, align 4, !tbaa !31
  %90 = trunc i32 %89 to i8
  %91 = load ptr, ptr %6, align 8, !tbaa !56
  %92 = load i32, ptr %8, align 4, !tbaa !31
  %93 = zext i32 %92 to i64
  %94 = getelementptr inbounds nuw %struct.VLCElem, ptr %91, i64 %93
  %95 = getelementptr inbounds nuw %struct.VLCElem, ptr %94, i32 0, i32 0
  %96 = getelementptr inbounds nuw %struct.anon.2, ptr %95, i32 0, i32 1
  store i8 %90, ptr %96, align 2, !tbaa !41
  %97 = load i32, ptr %11, align 4, !tbaa !31
  %98 = trunc i32 %97 to i16
  %99 = load ptr, ptr %6, align 8, !tbaa !56
  %100 = load i32, ptr %8, align 4, !tbaa !31
  %101 = zext i32 %100 to i64
  %102 = getelementptr inbounds nuw %struct.VLCElem, ptr %99, i64 %101
  %103 = getelementptr inbounds nuw %struct.VLCElem, ptr %102, i32 0, i32 0
  %104 = getelementptr inbounds nuw %struct.anon.2, ptr %103, i32 0, i32 0
  store i16 %98, ptr %104, align 2, !tbaa !41
  call void @llvm.lifetime.end.p0(i64 4, ptr %11) #10
  call void @llvm.lifetime.end.p0(i64 4, ptr %10) #10
  call void @llvm.lifetime.end.p0(i64 4, ptr %9) #10
  br label %105

105:                                              ; preds = %88
  %106 = load i32, ptr %8, align 4, !tbaa !31
  %107 = add i32 %106, 1
  store i32 %107, ptr %8, align 4, !tbaa !31
  br label %50, !llvm.loop !77

108:                                              ; preds = %54
  %109 = load i32, ptr %4, align 4, !tbaa !31
  %110 = sext i32 %109 to i64
  %111 = getelementptr inbounds [6 x i16], ptr @hqx_ac_nb_elems, i64 0, i64 %110
  %112 = load i16, ptr %111, align 2, !tbaa !74
  %113 = zext i16 %112 to i32
  %114 = load ptr, ptr %2, align 8, !tbaa !39
  %115 = sext i32 %113 to i64
  %116 = getelementptr inbounds i8, ptr %114, i64 %115
  store ptr %116, ptr %2, align 8, !tbaa !39
  %117 = load i32, ptr %4, align 4, !tbaa !31
  %118 = sext i32 %117 to i64
  %119 = getelementptr inbounds [6 x i16], ptr @hqx_ac_nb_elems, i64 0, i64 %118
  %120 = load i16, ptr %119, align 2, !tbaa !74
  %121 = zext i16 %120 to i32
  %122 = load ptr, ptr %3, align 8, !tbaa !68
  %123 = sext i32 %121 to i64
  %124 = getelementptr inbounds i16, ptr %122, i64 %123
  store ptr %124, ptr %3, align 8, !tbaa !68
  call void @llvm.lifetime.end.p0(i64 4, ptr %7) #10
  call void @llvm.lifetime.end.p0(i64 8, ptr %6) #10
  br label %125

125:                                              ; preds = %108
  %126 = load i32, ptr %4, align 4, !tbaa !31
  %127 = add nsw i32 %126, 1
  store i32 %127, ptr %4, align 4, !tbaa !31
  br label %20, !llvm.loop !78

128:                                              ; preds = %23
  call void @llvm.lifetime.end.p0(i64 8, ptr %3) #10
  call void @llvm.lifetime.end.p0(i64 8, ptr %2) #10
  call void @llvm.lifetime.end.p0(i64 16, ptr %1) #10
  ret void
}