; Function Attrs: cold nounwind optsize uwtable
define internal void @hqx_init_static() #0 {
  %1 = alloca %struct.VLCInitState, align 8
  call void @llvm.lifetime.start.p0(i64 16, ptr nonnull %1) #8
  call void @llvm.memcpy.p0.p0.i64(ptr noundef nonnull align 8 dereferenceable(16) %1, ptr noundef nonnull align 8 dereferenceable(16) @__const.hqx_init_static.state, i64 16, i1 false)
  %2 = call ptr @ff_vlc_init_tables_sparse(ptr noundef nonnull %1, i32 noundef 9, i32 noundef 512, ptr noundef nonnull @dc9_vlc_lens, i32 noundef 1, i32 noundef 1, ptr noundef nonnull @dc9_vlc_bits, i32 noundef 2, i32 noundef 2, ptr noundef null, i32 noundef 0, i32 noundef 0, i32 noundef 0) #8
  store ptr %2, ptr @dc_vlc, align 16, !tbaa !46
  %3 = call ptr @ff_vlc_init_tables_sparse(ptr noundef nonnull %1, i32 noundef 9, i32 noundef 1024, ptr noundef nonnull @dc10_vlc_lens, i32 noundef 1, i32 noundef 1, ptr noundef nonnull @dc10_vlc_bits, i32 noundef 2, i32 noundef 2, ptr noundef null, i32 noundef 0, i32 noundef 0, i32 noundef 0) #8
  store ptr %3, ptr getelementptr inbounds nuw (i8, ptr @dc_vlc, i64 8), align 8, !tbaa !46
  %4 = getelementptr inbounds nuw i8, ptr %1, i64 8
  br label %6

5:                                                ; preds = %._crit_edge
  call void @llvm.lifetime.end.p0(i64 16, ptr nonnull %1) #8
  ret void

6:                                                ; preds = %0, %._crit_edge
  %indvars.iv39 = phi i64 [ 0, %0 ], [ %indvars.iv.next40, %._crit_edge ]
  %.03037 = phi ptr [ @hqx_ac_lens, %0 ], [ %19, %._crit_edge ]
  %.03136 = phi ptr [ @hqx_ac_run_level, %0 ], [ %20, %._crit_edge ]
  %7 = load ptr, ptr %1, align 8, !tbaa !58
  %8 = load i32, ptr %4, align 8, !tbaa !60
  %9 = getelementptr inbounds nuw [6 x %struct.HQXAC], ptr @hqx_ac, i64 0, i64 %indvars.iv39
  %10 = load i32, ptr %9, align 16, !tbaa !61
  %11 = getelementptr inbounds nuw [6 x i16], ptr @hqx_ac_nb_elems, i64 0, i64 %indvars.iv39
  %12 = load i16, ptr %11, align 2, !tbaa !63
  %13 = zext i16 %12 to i32
  %14 = call ptr @ff_vlc_init_tables_from_lengths(ptr noundef nonnull %1, i32 noundef %10, i32 noundef %13, ptr noundef %.03037, i32 noundef 1, ptr noundef %.03136, i32 noundef 2, i32 noundef 2, i32 noundef 0, i32 noundef 0) #8
  %15 = getelementptr inbounds nuw i8, ptr %9, i64 8
  store ptr %14, ptr %15, align 8, !tbaa !65
  %16 = load i32, ptr %4, align 8, !tbaa !60
  %.not = icmp eq i32 %8, %16
  br i1 %.not, label %._crit_edge, label %.lr.ph.preheader

.lr.ph.preheader:                                 ; preds = %6
  %17 = sub i32 %8, %16
  %wide.trip.count = zext i32 %17 to i64
  br label %.lr.ph

._crit_edge:                                      ; preds = %31, %6
  %18 = zext i16 %12 to i64
  %19 = getelementptr inbounds nuw i8, ptr %.03037, i64 %18
  %20 = getelementptr inbounds nuw i16, ptr %.03136, i64 %18
  %indvars.iv.next40 = add nuw nsw i64 %indvars.iv39, 1
  %exitcond42.not = icmp eq i64 %indvars.iv.next40, 6
  br i1 %exitcond42.not, label %5, label %6, !llvm.loop !66

.lr.ph:                                           ; preds = %.lr.ph.preheader, %31
  %indvars.iv = phi i64 [ 0, %.lr.ph.preheader ], [ %indvars.iv.next, %31 ]
  %21 = getelementptr inbounds nuw %struct.VLCElem, ptr %7, i64 %indvars.iv
  %22 = load i16, ptr %21, align 2, !tbaa !30
  %23 = getelementptr inbounds nuw i8, ptr %21, i64 2
  %24 = load i16, ptr %23, align 2, !tbaa !30
  %25 = icmp slt i16 %24, 0
  br i1 %25, label %31, label %26

26:                                               ; preds = %.lr.ph
  %27 = ashr i16 %22, 7
  %28 = trunc i16 %22 to i8
  %29 = and i8 %28, 127
  %30 = getelementptr inbounds nuw i8, ptr %21, i64 3
  store i8 %29, ptr %30, align 1, !tbaa !30
  br label %31

31:                                               ; preds = %.lr.ph, %26
  %.0 = phi i16 [ %27, %26 ], [ %22, %.lr.ph ]
  %32 = trunc i16 %24 to i8
  store i8 %32, ptr %23, align 2, !tbaa !30
  store i16 %.0, ptr %21, align 2, !tbaa !30
  %indvars.iv.next = add nuw nsw i64 %indvars.iv, 1
  %exitcond.not = icmp eq i64 %indvars.iv.next, %wide.trip.count
  br i1 %exitcond.not, label %._crit_edge, label %.lr.ph, !llvm.loop !67
}